target datalayout = "e-m:e-p270:32:32-p271:32:32-p272:64:64-i64:64-i128:128-f80:128-n8:16:32:64-S128"
target triple = "x86_64-pc-linux-gnu"

%class.MallocMemorySnapshot = type { [28 x %class.MallocMemory], %class.MemoryCounter }
%class.MallocMemory = type { %class.MemoryCounter, %class.MemoryCounter }
%class.MemoryCounter = type { i64, i64, i64, i64 }
%class.AllocationSite.base = type <{ %class.NativeCallStack, i8 }>
%class.NativeCallStack = type { [4 x ptr] }
%class.VirtualMemoryAllocationSite = type { %class.AllocationSite.base, %class.VirtualMemory }
%class.VirtualMemory = type { i64, i64, i64 }
%class.MetaspaceCombinedStats = type { %class.MetaspaceStats, %class.MetaspaceStats, %class.MetaspaceStats }
%class.MetaspaceStats = type { i64, i64, i64 }
%class.MemBaseline = type <{ %class.MallocMemorySnapshot, %class.VirtualMemorySnapshot, %class.MetaspaceCombinedStats, i64, i64, i64, %class.LinkedListImpl, %class.LinkedListImpl.0, %class.LinkedListImpl.2, i32, i32, i32, [4 x i8] }>
%class.VirtualMemorySnapshot = type { [28 x %class.VirtualMemory] }
%class.LinkedListImpl = type { %class.LinkedList, ptr }
%class.LinkedList = type { ptr, ptr }
%class.LinkedListImpl.0 = type { %class.LinkedList.1, ptr }
%class.LinkedList.1 = type { ptr, ptr }
%class.LinkedListImpl.2 = type { %class.LinkedList.3, ptr }
%class.LinkedList.3 = type { ptr, ptr }
%class.LinkedListNode = type { %class.VirtualMemoryAllocationSite, ptr }
%class.LinkedListIterator.9 = type { ptr }
%class.SortedLinkedList.12 = type { %class.LinkedListImpl.2 }
%class.SortedLinkedList.13 = type { %class.LinkedListImpl.2 }

@g_assert_poison = external global ptr, align 8
@.str = private unnamed_addr constant [38 x i8] c"src/hotspot/share/nmt/memBaseline.cpp\00", align 1

; Function Attrs: mustprogress nounwind uwtable
define linkonce_odr hidden void @_ZN10LinkedListI27VirtualMemoryAllocationSiteED2Ev(ptr noundef nonnull align 8 dereferenceable(16) %0) unnamed_addr #1 comdat align 2 {
  %2 = alloca ptr, align 8
  store ptr %0, ptr %2, align 8
  ret void
}

; Function Attrs: mustprogress nounwind uwtable
define linkonce_odr hidden noundef ptr @_ZNK14LinkedListNodeI27VirtualMemoryAllocationSiteE4nextEv(ptr noundef nonnull align 8 dereferenceable(72) %0) #1 comdat align 2 {
  %2 = alloca ptr, align 8
  store ptr %0, ptr %2, align 8
  %3 = load ptr, ptr %2, align 8
  %4 = getelementptr inbounds %class.LinkedListNode, ptr %3, i32 0, i32 1
  %5 = load ptr, ptr %4, align 8
  ret ptr %5
}

; Function Attrs: mustprogress nounwind uwtable
define linkonce_odr hidden void @_ZN10LinkedListI27VirtualMemoryAllocationSiteEC2Ev(ptr noundef nonnull align 8 dereferenceable(16) %0) unnamed_addr #1 comdat align 2 {
  %2 = alloca ptr, align 8
  store ptr %0, ptr %2, align 8
  %3 = load ptr, ptr %2, align 8
  store ptr getelementptr inbounds inrange(-16, 112) ({ [16 x ptr] }, ptr @_ZTV10LinkedListI27VirtualMemoryAllocationSiteE, i32 0, i32 0, i32 2), ptr %3, align 8
  %4 = getelementptr inbounds %class.LinkedList.3, ptr %3, i32 0, i32 1
  store ptr null, ptr %4, align 8
  ret void
}

; Function Attrs: mustprogress nounwind uwtable
define linkonce_odr hidden void @_ZN14LinkedListImplI27VirtualMemoryAllocationSiteLN6AnyObj15allocation_typeE2EL8MEMFLAGS12ELN17AllocFailStrategy13AllocFailEnumE1EED2Ev(ptr noundef nonnull align 8 dereferenceable(24) %0) unnamed_addr #1 comdat align 2 {
  %2 = alloca ptr, align 8
  store ptr %0, ptr %2, align 8
  %3 = load ptr, ptr %2, align 8
  store ptr getelementptr inbounds inrange(-16, 120) ({ [17 x ptr] }, ptr @_ZTV14LinkedListImplI27VirtualMemoryAllocationSiteLN6AnyObj15allocation_typeE2EL8MEMFLAGS12ELN17AllocFailStrategy13AllocFailEnumE1EE, i32 0, i32 0, i32 2), ptr %3, align 8
  %4 = load ptr, ptr %3, align 8
  %5 = getelementptr inbounds ptr, ptr %4, i64 14
  %6 = load ptr, ptr %5, align 8
  call void %6(ptr noundef nonnull align 8 dereferenceable(24) %3)
  call void @_ZN10LinkedListI27VirtualMemoryAllocationSiteED2Ev(ptr noundef nonnull align 8 dereferenceable(16) %3) #10
  ret void
}

; Function Attrs: mustprogress nounwind uwtable
define linkonce_odr hidden noundef ptr @_ZN10LinkedListI27VirtualMemoryAllocationSiteE11unlink_headEv(ptr noundef nonnull align 8 dereferenceable(16) %0) #1 comdat align 2 {
  %2 = alloca ptr, align 8
  %3 = alloca ptr, align 8
  store ptr %0, ptr %2, align 8
  %4 = load ptr, ptr %2, align 8
  %5 = call noundef ptr @_ZNK10LinkedListI27VirtualMemoryAllocationSiteE4headEv(ptr noundef nonnull align 8 dereferenceable(16) %4)
  store ptr %5, ptr %3, align 8
  %6 = load ptr, ptr %3, align 8
  %7 = icmp ne ptr %6, null
  br i1 %7, label %8, label %11

8:                                                ; preds = %1
  %9 = load ptr, ptr %3, align 8
  %10 = call noundef ptr @_ZNK14LinkedListNodeI27VirtualMemoryAllocationSiteE4nextEv(ptr noundef nonnull align 8 dereferenceable(72) %9)
  call void @_ZN10LinkedListI27VirtualMemoryAllocationSiteE8set_headEP14LinkedListNodeIS0_E(ptr noundef nonnull align 8 dereferenceable(16) %4, ptr noundef %10)
  br label %11

11:                                               ; preds = %8, %1
  %12 = load ptr, ptr %3, align 8
  ret ptr %12
}

; Function Attrs: mustprogress nounwind uwtable
define linkonce_odr hidden void @_ZN14LinkedListImplI27VirtualMemoryAllocationSiteLN6AnyObj15allocation_typeE2EL8MEMFLAGS12ELN17AllocFailStrategy13AllocFailEnumE1EEC2Ev(ptr noundef nonnull align 8 dereferenceable(24) %0) unnamed_addr #1 comdat align 2 {
  %2 = alloca ptr, align 8
  store ptr %0, ptr %2, align 8
  %3 = load ptr, ptr %2, align 8
  call void @_ZN10LinkedListI27VirtualMemoryAllocationSiteEC2Ev(ptr noundef nonnull align 8 dereferenceable(16) %3)
  store ptr getelementptr inbounds inrange(-16, 120) ({ [17 x ptr] }, ptr @_ZTV14LinkedListImplI27VirtualMemoryAllocationSiteLN6AnyObj15allocation_typeE2EL8MEMFLAGS12ELN17AllocFailStrategy13AllocFailEnumE1EE, i32 0, i32 0, i32 2), ptr %3, align 8
  %4 = getelementptr inbounds %class.LinkedListImpl.2, ptr %3, i32 0, i32 1
  store ptr null, ptr %4, align 8
  ret void
}

; Function Attrs: mustprogress nounwind uwtable
define linkonce_odr hidden void @_ZN16SortedLinkedListI27VirtualMemoryAllocationSiteXadL_Z27compare_virtual_memory_siteRKS0_S2_EELN6AnyObj15allocation_typeE2EL8MEMFLAGS12ELN17AllocFailStrategy13AllocFailEnumE1EED2Ev(ptr noundef nonnull align 8 dereferenceable(24) %0) unnamed_addr #1 comdat align 2 {
  %2 = alloca ptr, align 8
  store ptr %0, ptr %2, align 8
  %3 = load ptr, ptr %2, align 8
  call void @_ZN14LinkedListImplI27VirtualMemoryAllocationSiteLN6AnyObj15allocation_typeE2EL8MEMFLAGS12ELN17AllocFailStrategy13AllocFailEnumE1EED2Ev(ptr noundef nonnull align 8 dereferenceable(24) %3) #10
  ret void
}

; Function Attrs: mustprogress nounwind uwtable
define linkonce_odr hidden void @_ZN16SortedLinkedListI27VirtualMemoryAllocationSiteXadL_Z27compare_virtual_memory_siteRKS0_S2_EELN6AnyObj15allocation_typeE2EL8MEMFLAGS12ELN17AllocFailStrategy13AllocFailEnumE1EE4moveEP10LinkedListIS0_E(ptr noundef nonnull align 8 dereferenceable(24) %0, ptr noundef %1) unnamed_addr #1 comdat align 2 {
  %3 = alloca ptr, align 8
  %4 = alloca ptr, align 8
  %5 = alloca ptr, align 8
  store ptr %0, ptr %3, align 8
  store ptr %1, ptr %4, align 8
  %6 = load ptr, ptr %3, align 8
  br label %7

7:                                                ; preds = %11, %2
  %8 = load ptr, ptr %4, align 8
  %9 = call noundef ptr @_ZN10LinkedListI27VirtualMemoryAllocationSiteE11unlink_headEv(ptr noundef nonnull align 8 dereferenceable(16) %8)
  store ptr %9, ptr %5, align 8
  %10 = icmp ne ptr %9, null
  br i1 %10, label %11, label %16

11:                                               ; preds = %7
  %12 = load ptr, ptr %5, align 8
  %13 = load ptr, ptr %6, align 8
  %14 = getelementptr inbounds ptr, ptr %13, i64 4
  %15 = load ptr, ptr %14, align 8
  call void %15(ptr noundef nonnull align 8 dereferenceable(24) %6, ptr noundef %12)
  br label %7, !llvm.loop !15

16:                                               ; preds = %7
  ret void
}

; Function Attrs: mustprogress nounwind uwtable
define linkonce_odr hidden void @_ZN16SortedLinkedListI27VirtualMemoryAllocationSiteXadL_Z27compare_virtual_memory_siteRKS0_S2_EELN6AnyObj15allocation_typeE2EL8MEMFLAGS12ELN17AllocFailStrategy13AllocFailEnumE1EEC2Ev(ptr noundef nonnull align 8 dereferenceable(24) %0) unnamed_addr #1 comdat align 2 {
  %2 = alloca ptr, align 8
  store ptr %0, ptr %2, align 8
  %3 = load ptr, ptr %2, align 8
  call void @_ZN14LinkedListImplI27VirtualMemoryAllocationSiteLN6AnyObj15allocation_typeE2EL8MEMFLAGS12ELN17AllocFailStrategy13AllocFailEnumE1EEC2Ev(ptr noundef nonnull align 8 dereferenceable(24) %3)
  store ptr getelementptr inbounds inrange(-16, 120) ({ [17 x ptr] }, ptr @_ZTV16SortedLinkedListI27VirtualMemoryAllocationSiteXadL_Z27compare_virtual_memory_siteRKS0_S2_EELN6AnyObj15allocation_typeE2EL8MEMFLAGS12ELN17AllocFailStrategy13AllocFailEnumE1EE, i32 0, i32 0, i32 2), ptr %3, align 8
  ret void
}

; Function Attrs: mustprogress nounwind uwtable
define linkonce_odr hidden void @_ZN16SortedLinkedListI27VirtualMemoryAllocationSiteXadL_Z27compare_virtual_memory_sizeRKS0_S2_EELN6AnyObj15allocation_typeE2EL8MEMFLAGS12ELN17AllocFailStrategy13AllocFailEnumE1EED2Ev(ptr noundef nonnull align 8 dereferenceable(24) %0) unnamed_addr #1 comdat align 2 {
  %2 = alloca ptr, align 8
  store ptr %0, ptr %2, align 8
  %3 = load ptr, ptr %2, align 8
  call void @_ZN14LinkedListImplI27VirtualMemoryAllocationSiteLN6AnyObj15allocation_typeE2EL8MEMFLAGS12ELN17AllocFailStrategy13AllocFailEnumE1EED2Ev(ptr noundef nonnull align 8 dereferenceable(24) %3) #10
  ret void
}

; Function Attrs: mustprogress nounwind uwtable
define linkonce_odr hidden void @_ZN10LinkedListI27VirtualMemoryAllocationSiteE8set_headEP14LinkedListNodeIS0_E(ptr noundef nonnull align 8 dereferenceable(16) %0, ptr noundef %1) #1 comdat align 2 {
  %3 = alloca ptr, align 8
  %4 = alloca ptr, align 8
  store ptr %0, ptr %3, align 8
  store ptr %1, ptr %4, align 8
  %5 = load ptr, ptr %3, align 8
  %6 = load ptr, ptr %4, align 8
  %7 = getelementptr inbounds %class.LinkedList.3, ptr %5, i32 0, i32 1
  store ptr %6, ptr %7, align 8
  ret void
}

; Function Attrs: mustprogress nounwind uwtable
define linkonce_odr hidden void @_ZN16SortedLinkedListI27VirtualMemoryAllocationSiteXadL_Z27compare_virtual_memory_sizeRKS0_S2_EELN6AnyObj15allocation_typeE2EL8MEMFLAGS12ELN17AllocFailStrategy13AllocFailEnumE1EE4moveEP10LinkedListIS0_E(ptr noundef nonnull align 8 dereferenceable(24) %0, ptr noundef %1) unnamed_addr #1 comdat align 2 {
  %3 = alloca ptr, align 8
  %4 = alloca ptr, align 8
  %5 = alloca ptr, align 8
  store ptr %0, ptr %3, align 8
  store ptr %1, ptr %4, align 8
  %6 = load ptr, ptr %3, align 8
  br label %7

7:                                                ; preds = %11, %2
  %8 = load ptr, ptr %4, align 8
  %9 = call noundef ptr @_ZN10LinkedListI27VirtualMemoryAllocationSiteE11unlink_headEv(ptr noundef nonnull align 8 dereferenceable(16) %8)
  store ptr %9, ptr %5, align 8
  %10 = icmp ne ptr %9, null
  br i1 %10, label %11, label %16

11:                                               ; preds = %7
  %12 = load ptr, ptr %5, align 8
  %13 = load ptr, ptr %6, align 8
  %14 = getelementptr inbounds ptr, ptr %13, i64 4
  %15 = load ptr, ptr %14, align 8
  call void %15(ptr noundef nonnull align 8 dereferenceable(24) %6, ptr noundef %12)
  br label %7, !llvm.loop !14

16:                                               ; preds = %7
  ret void
}

; Function Attrs: mustprogress nounwind uwtable
define linkonce_odr hidden void @_ZN16SortedLinkedListI27VirtualMemoryAllocationSiteXadL_Z27compare_virtual_memory_sizeRKS0_S2_EELN6AnyObj15allocation_typeE2EL8MEMFLAGS12ELN17AllocFailStrategy13AllocFailEnumE1EEC2Ev(ptr noundef nonnull align 8 dereferenceable(24) %0) unnamed_addr #1 comdat align 2 {
  %2 = alloca ptr, align 8
  store ptr %0, ptr %2, align 8
  %3 = load ptr, ptr %2, align 8
  call void @_ZN14LinkedListImplI27VirtualMemoryAllocationSiteLN6AnyObj15allocation_typeE2EL8MEMFLAGS12ELN17AllocFailStrategy13AllocFailEnumE1EEC2Ev(ptr noundef nonnull align 8 dereferenceable(24) %3)
  store ptr getelementptr inbounds inrange(-16, 120) ({ [17 x ptr] }, ptr @_ZTV16SortedLinkedListI27VirtualMemoryAllocationSiteXadL_Z27compare_virtual_memory_sizeRKS0_S2_EELN6AnyObj15allocation_typeE2EL8MEMFLAGS12ELN17AllocFailStrategy13AllocFailEnumE1EE, i32 0, i32 0, i32 2), ptr %3, align 8
  ret void
}

; Function Attrs: mustprogress nounwind uwtable
define linkonce_odr hidden void @_ZN18LinkedListIteratorI27VirtualMemoryAllocationSiteEC2EP14LinkedListNodeIS0_E(ptr noundef nonnull align 8 dereferenceable(8) %0, ptr noundef %1) unnamed_addr #1 comdat align 2 {
  %3 = alloca ptr, align 8
  %4 = alloca ptr, align 8
  store ptr %0, ptr %3, align 8
  store ptr %1, ptr %4, align 8
  %5 = load ptr, ptr %3, align 8
  %6 = getelementptr inbounds %class.LinkedListIterator.9, ptr %5, i32 0, i32 0
  %7 = load ptr, ptr %4, align 8
  store ptr %7, ptr %6, align 8
  ret void
}

; Function Attrs: mustprogress nounwind uwtable
define linkonce_odr hidden noundef ptr @_ZNK10LinkedListI27VirtualMemoryAllocationSiteE4headEv(ptr noundef nonnull align 8 dereferenceable(16) %0) #1 comdat align 2 {
  %2 = alloca ptr, align 8
  store ptr %0, ptr %2, align 8
  %3 = load ptr, ptr %2, align 8
  %4 = getelementptr inbounds %class.LinkedList.3, ptr %3, i32 0, i32 1
  %5 = load ptr, ptr %4, align 8
  ret ptr %5
}

; Function Attrs: mustprogress nounwind uwtable
define hidden void @_ZN11MemBaseline46virtual_memory_sites_to_reservation_site_orderEv(ptr noundef nonnull align 8 dereferenceable(2676) %0) #1 align 2 {
  %2 = alloca ptr, align 8
  %3 = alloca %class.SortedLinkedList.13, align 8
  store ptr %0, ptr %2, align 8
  %4 = load ptr, ptr %2, align 8
  %5 = getelementptr inbounds %class.MemBaseline, ptr %4, i32 0, i32 10
  %6 = load i32, ptr %5, align 4
  %7 = icmp ne i32 %6, 1
  br i1 %7, label %8, label %13

8:                                                ; preds = %1
  call void @_ZN16SortedLinkedListI27VirtualMemoryAllocationSiteXadL_Z27compare_virtual_memory_siteRKS0_S2_EELN6AnyObj15allocation_typeE2EL8MEMFLAGS12ELN17AllocFailStrategy13AllocFailEnumE1EEC2Ev(ptr noundef nonnull align 8 dereferenceable(24) %3)
  %9 = getelementptr inbounds %class.MemBaseline, ptr %4, i32 0, i32 8
  call void @_ZN16SortedLinkedListI27VirtualMemoryAllocationSiteXadL_Z27compare_virtual_memory_siteRKS0_S2_EELN6AnyObj15allocation_typeE2EL8MEMFLAGS12ELN17AllocFailStrategy13AllocFailEnumE1EE4moveEP10LinkedListIS0_E(ptr noundef nonnull align 8 dereferenceable(24) %3, ptr noundef %9)
  %10 = getelementptr inbounds %class.MemBaseline, ptr %4, i32 0, i32 8
  %11 = call noundef ptr @_ZNK10LinkedListI27VirtualMemoryAllocationSiteE4headEv(ptr noundef nonnull align 8 dereferenceable(16) %3)
  call void @_ZN10LinkedListI27VirtualMemoryAllocationSiteE8set_headEP14LinkedListNodeIS0_E(ptr noundef nonnull align 8 dereferenceable(16) %10, ptr noundef %11)
  call void @_ZN10LinkedListI27VirtualMemoryAllocationSiteE8set_headEP14LinkedListNodeIS0_E(ptr noundef nonnull align 8 dereferenceable(16) %3, ptr noundef null)
  %12 = getelementptr inbounds %class.MemBaseline, ptr %4, i32 0, i32 10
  store i32 1, ptr %12, align 4
  call void @_ZN16SortedLinkedListI27VirtualMemoryAllocationSiteXadL_Z27compare_virtual_memory_siteRKS0_S2_EELN6AnyObj15allocation_typeE2EL8MEMFLAGS12ELN17AllocFailStrategy13AllocFailEnumE1EED2Ev(ptr noundef nonnull align 8 dereferenceable(24) %3) #10
  br label %13

13:                                               ; preds = %8, %1
  ret void
}

; Function Attrs: mustprogress nounwind uwtable
define hidden void @_ZN11MemBaseline34virtual_memory_sites_to_size_orderEv(ptr noundef nonnull align 8 dereferenceable(2676) %0) #1 align 2 {
  %2 = alloca ptr, align 8
  %3 = alloca %class.SortedLinkedList.12, align 8
  store ptr %0, ptr %2, align 8
  %4 = load ptr, ptr %2, align 8
  %5 = getelementptr inbounds %class.MemBaseline, ptr %4, i32 0, i32 10
  %6 = load i32, ptr %5, align 4
  %7 = icmp ne i32 %6, 1
  br i1 %7, label %8, label %13

8:                                                ; preds = %1
  call void @_ZN16SortedLinkedListI27VirtualMemoryAllocationSiteXadL_Z27compare_virtual_memory_sizeRKS0_S2_EELN6AnyObj15allocation_typeE2EL8MEMFLAGS12ELN17AllocFailStrategy13AllocFailEnumE1EEC2Ev(ptr noundef nonnull align 8 dereferenceable(24) %3)
  %9 = getelementptr inbounds %class.MemBaseline, ptr %4, i32 0, i32 8
  call void @_ZN16SortedLinkedListI27VirtualMemoryAllocationSiteXadL_Z27compare_virtual_memory_sizeRKS0_S2_EELN6AnyObj15allocation_typeE2EL8MEMFLAGS12ELN17AllocFailStrategy13AllocFailEnumE1EE4moveEP10LinkedListIS0_E(ptr noundef nonnull align 8 dereferenceable(24) %3, ptr noundef %9)
  %10 = getelementptr inbounds %class.MemBaseline, ptr %4, i32 0, i32 8
  %11 = call noundef ptr @_ZNK10LinkedListI27VirtualMemoryAllocationSiteE4headEv(ptr noundef nonnull align 8 dereferenceable(16) %3)
  call void @_ZN10LinkedListI27VirtualMemoryAllocationSiteE8set_headEP14LinkedListNodeIS0_E(ptr noundef nonnull align 8 dereferenceable(16) %10, ptr noundef %11)
  call void @_ZN10LinkedListI27VirtualMemoryAllocationSiteE8set_headEP14LinkedListNodeIS0_E(ptr noundef nonnull align 8 dereferenceable(16) %3, ptr noundef null)
  %12 = getelementptr inbounds %class.MemBaseline, ptr %4, i32 0, i32 10
  store i32 1, ptr %12, align 4
  call void @_ZN16SortedLinkedListI27VirtualMemoryAllocationSiteXadL_Z27compare_virtual_memory_sizeRKS0_S2_EELN6AnyObj15allocation_typeE2EL8MEMFLAGS12ELN17AllocFailStrategy13AllocFailEnumE1EED2Ev(ptr noundef nonnull align 8 dereferenceable(24) %3) #10
  br label %13

13:                                               ; preds = %8, %1
  ret void
}

; Function Attrs: mustprogress nounwind uwtable
define hidden ptr @_ZN11MemBaseline20virtual_memory_sitesENS_12SortingOrderE(ptr noundef nonnull align 8 dereferenceable(2676) %0, i32 noundef %1) #1 align 2 {
  %3 = alloca %class.LinkedListIterator.9, align 8
  %4 = alloca ptr, align 8
  %5 = alloca i32, align 4
  store ptr %0, ptr %4, align 8
  store i32 %1, ptr %5, align 4
  %6 = load ptr, ptr %4, align 8
  %7 = load i32, ptr %5, align 4
  switch i32 %7, label %11 [
    i32 1, label %8
    i32 2, label %9
    i32 0, label %10
  ]

8:                                                ; preds = %2
  call void @_ZN11MemBaseline34virtual_memory_sites_to_size_orderEv(ptr noundef nonnull align 8 dereferenceable(2676) %6)
  br label %15

9:                                                ; preds = %2
  call void @_ZN11MemBaseline46virtual_memory_sites_to_reservation_site_orderEv(ptr noundef nonnull align 8 dereferenceable(2676) %6)
  br label %15

10:                                               ; preds = %2
  br label %11

11:                                               ; preds = %10, %2
  br label %12

12:                                               ; preds = %11
  %13 = load ptr, ptr @g_assert_poison, align 8
  store i8 88, ptr %13, align 1
  call void @_Z28report_should_not_reach_herePKci(ptr noundef @.str, i32 noundef 256) #11
  unreachable

14:                                               ; No predecessors!
  br label %15

15:                                               ; preds = %14, %9, %8
  %16 = getelementptr inbounds %class.MemBaseline, ptr %6, i32 0, i32 8
  %17 = call noundef ptr @_ZNK10LinkedListI27VirtualMemoryAllocationSiteE4headEv(ptr noundef nonnull align 8 dereferenceable(16) %16)
  call void @_ZN18LinkedListIteratorI27VirtualMemoryAllocationSiteEC2EP14LinkedListNodeIS0_E(ptr noundef nonnull align 8 dereferenceable(8) %3, ptr noundef %17)
  %18 = getelementptr inbounds %class.LinkedListIterator.9, ptr %3, i32 0, i32 0
  %19 = load ptr, ptr %18, align 8
  ret ptr %19
}