; Function Attrs: mustprogress nounwind uwtable
define hidden ptr @_ZN11MemBaseline20virtual_memory_sitesENS_12SortingOrderE(ptr nocapture noundef nonnull align 8 dereferenceable(2676) %0, i32 noundef %1) local_unnamed_addr #3 align 2 {
  %3 = alloca %class.SortedLinkedList.13, align 8
  %4 = alloca %class.SortedLinkedList.12, align 8
  switch i32 %1, label %35 [
    i32 1, label %5
    i32 2, label %20
  ]

5:                                                ; preds = %2
  call void @llvm.lifetime.start.p0(i64 24, ptr nonnull %4)
  %6 = getelementptr inbounds i8, ptr %0, i64 2668
  %7 = load i32, ptr %6, align 4
  %.not.i = icmp eq i32 %7, 1
  br i1 %.not.i, label %_ZN11MemBaseline34virtual_memory_sites_to_size_orderEv.exit, label %8

8:                                                ; preds = %5
  %9 = getelementptr inbounds i8, ptr %4, i64 8
  call void @llvm.memset.p0.i64(ptr noundef nonnull align 8 dereferenceable(16) %9, i8 0, i64 16, i1 false)
  store ptr getelementptr inbounds inrange(-16, 120) (i8, ptr @_ZTV16SortedLinkedListI27VirtualMemoryAllocationSiteXadL_Z27compare_virtual_memory_sizeRKS0_S2_EELN6AnyObj15allocation_typeE2EL8MEMFLAGS12ELN17AllocFailStrategy13AllocFailEnumE1EE, i64 16), ptr %4, align 8
  %10 = getelementptr inbounds i8, ptr %0, i64 2648
  %11 = load ptr, ptr %10, align 8
  %.not.i3.i.i = icmp eq ptr %11, null
  br i1 %.not.i3.i.i, label %_ZN16SortedLinkedListI27VirtualMemoryAllocationSiteXadL_Z27compare_virtual_memory_sizeRKS0_S2_EELN6AnyObj15allocation_typeE2EL8MEMFLAGS12ELN17AllocFailStrategy13AllocFailEnumE1EED2Ev.exit.i, label %.lr.ph.i.i

.lr.ph.i.i:                                       ; preds = %8, %.lr.ph.i.i
  %12 = phi ptr [ %18, %.lr.ph.i.i ], [ %11, %8 ]
  %13 = getelementptr inbounds i8, ptr %12, i64 64
  %14 = load ptr, ptr %13, align 8
  store ptr %14, ptr %10, align 8
  %15 = load ptr, ptr %4, align 8
  %16 = getelementptr inbounds i8, ptr %15, i64 32
  %17 = load ptr, ptr %16, align 8
  call void %17(ptr noundef nonnull align 8 dereferenceable(24) %4, ptr noundef nonnull %12) #14
  %18 = load ptr, ptr %10, align 8
  %.not.i.i.i = icmp eq ptr %18, null
  br i1 %.not.i.i.i, label %_ZN16SortedLinkedListI27VirtualMemoryAllocationSiteXadL_Z27compare_virtual_memory_sizeRKS0_S2_EELN6AnyObj15allocation_typeE2EL8MEMFLAGS12ELN17AllocFailStrategy13AllocFailEnumE1EED2Ev.exit.loopexit.i, label %.lr.ph.i.i, !llvm.loop !18

_ZN16SortedLinkedListI27VirtualMemoryAllocationSiteXadL_Z27compare_virtual_memory_sizeRKS0_S2_EELN6AnyObj15allocation_typeE2EL8MEMFLAGS12ELN17AllocFailStrategy13AllocFailEnumE1EED2Ev.exit.loopexit.i: ; preds = %.lr.ph.i.i
  %.pre.i = load ptr, ptr %9, align 8
  br label %_ZN16SortedLinkedListI27VirtualMemoryAllocationSiteXadL_Z27compare_virtual_memory_sizeRKS0_S2_EELN6AnyObj15allocation_typeE2EL8MEMFLAGS12ELN17AllocFailStrategy13AllocFailEnumE1EED2Ev.exit.i

_ZN16SortedLinkedListI27VirtualMemoryAllocationSiteXadL_Z27compare_virtual_memory_sizeRKS0_S2_EELN6AnyObj15allocation_typeE2EL8MEMFLAGS12ELN17AllocFailStrategy13AllocFailEnumE1EED2Ev.exit.i: ; preds = %_ZN16SortedLinkedListI27VirtualMemoryAllocationSiteXadL_Z27compare_virtual_memory_sizeRKS0_S2_EELN6AnyObj15allocation_typeE2EL8MEMFLAGS12ELN17AllocFailStrategy13AllocFailEnumE1EED2Ev.exit.loopexit.i, %8
  %19 = phi ptr [ %.pre.i, %_ZN16SortedLinkedListI27VirtualMemoryAllocationSiteXadL_Z27compare_virtual_memory_sizeRKS0_S2_EELN6AnyObj15allocation_typeE2EL8MEMFLAGS12ELN17AllocFailStrategy13AllocFailEnumE1EED2Ev.exit.loopexit.i ], [ null, %8 ]
  store ptr %19, ptr %10, align 8
  store i32 1, ptr %6, align 4
  br label %_ZN11MemBaseline34virtual_memory_sites_to_size_orderEv.exit

_ZN11MemBaseline34virtual_memory_sites_to_size_orderEv.exit: ; preds = %5, %_ZN16SortedLinkedListI27VirtualMemoryAllocationSiteXadL_Z27compare_virtual_memory_sizeRKS0_S2_EELN6AnyObj15allocation_typeE2EL8MEMFLAGS12ELN17AllocFailStrategy13AllocFailEnumE1EED2Ev.exit.i
  call void @llvm.lifetime.end.p0(i64 24, ptr nonnull %4)
  br label %37

20:                                               ; preds = %2
  call void @llvm.lifetime.start.p0(i64 24, ptr nonnull %3)
  %21 = getelementptr inbounds i8, ptr %0, i64 2668
  %22 = load i32, ptr %21, align 4
  %.not.i1 = icmp eq i32 %22, 1
  br i1 %.not.i1, label %_ZN11MemBaseline46virtual_memory_sites_to_reservation_site_orderEv.exit, label %23

23:                                               ; preds = %20
  %24 = getelementptr inbounds i8, ptr %3, i64 8
  call void @llvm.memset.p0.i64(ptr noundef nonnull align 8 dereferenceable(16) %24, i8 0, i64 16, i1 false)
  store ptr getelementptr inbounds inrange(-16, 120) (i8, ptr @_ZTV16SortedLinkedListI27VirtualMemoryAllocationSiteXadL_Z27compare_virtual_memory_siteRKS0_S2_EELN6AnyObj15allocation_typeE2EL8MEMFLAGS12ELN17AllocFailStrategy13AllocFailEnumE1EE, i64 16), ptr %3, align 8
  %25 = getelementptr inbounds i8, ptr %0, i64 2648
  %26 = load ptr, ptr %25, align 8
  %.not.i3.i.i2 = icmp eq ptr %26, null
  br i1 %.not.i3.i.i2, label %_ZN16SortedLinkedListI27VirtualMemoryAllocationSiteXadL_Z27compare_virtual_memory_siteRKS0_S2_EELN6AnyObj15allocation_typeE2EL8MEMFLAGS12ELN17AllocFailStrategy13AllocFailEnumE1EED2Ev.exit.i, label %.lr.ph.i.i3

.lr.ph.i.i3:                                      ; preds = %23, %.lr.ph.i.i3
  %27 = phi ptr [ %33, %.lr.ph.i.i3 ], [ %26, %23 ]
  %28 = getelementptr inbounds i8, ptr %27, i64 64
  %29 = load ptr, ptr %28, align 8
  store ptr %29, ptr %25, align 8
  %30 = load ptr, ptr %3, align 8
  %31 = getelementptr inbounds i8, ptr %30, i64 32
  %32 = load ptr, ptr %31, align 8
  call void %32(ptr noundef nonnull align 8 dereferenceable(24) %3, ptr noundef nonnull %27) #14
  %33 = load ptr, ptr %25, align 8
  %.not.i.i.i4 = icmp eq ptr %33, null
  br i1 %.not.i.i.i4, label %_ZN16SortedLinkedListI27VirtualMemoryAllocationSiteXadL_Z27compare_virtual_memory_siteRKS0_S2_EELN6AnyObj15allocation_typeE2EL8MEMFLAGS12ELN17AllocFailStrategy13AllocFailEnumE1EED2Ev.exit.loopexit.i, label %.lr.ph.i.i3, !llvm.loop !19

_ZN16SortedLinkedListI27VirtualMemoryAllocationSiteXadL_Z27compare_virtual_memory_siteRKS0_S2_EELN6AnyObj15allocation_typeE2EL8MEMFLAGS12ELN17AllocFailStrategy13AllocFailEnumE1EED2Ev.exit.loopexit.i: ; preds = %.lr.ph.i.i3
  %.pre.i5 = load ptr, ptr %24, align 8
  br label %_ZN16SortedLinkedListI27VirtualMemoryAllocationSiteXadL_Z27compare_virtual_memory_siteRKS0_S2_EELN6AnyObj15allocation_typeE2EL8MEMFLAGS12ELN17AllocFailStrategy13AllocFailEnumE1EED2Ev.exit.i

_ZN16SortedLinkedListI27VirtualMemoryAllocationSiteXadL_Z27compare_virtual_memory_siteRKS0_S2_EELN6AnyObj15allocation_typeE2EL8MEMFLAGS12ELN17AllocFailStrategy13AllocFailEnumE1EED2Ev.exit.i: ; preds = %_ZN16SortedLinkedListI27VirtualMemoryAllocationSiteXadL_Z27compare_virtual_memory_siteRKS0_S2_EELN6AnyObj15allocation_typeE2EL8MEMFLAGS12ELN17AllocFailStrategy13AllocFailEnumE1EED2Ev.exit.loopexit.i, %23
  %34 = phi ptr [ %.pre.i5, %_ZN16SortedLinkedListI27VirtualMemoryAllocationSiteXadL_Z27compare_virtual_memory_siteRKS0_S2_EELN6AnyObj15allocation_typeE2EL8MEMFLAGS12ELN17AllocFailStrategy13AllocFailEnumE1EED2Ev.exit.loopexit.i ], [ null, %23 ]
  store ptr %34, ptr %25, align 8
  store i32 1, ptr %21, align 4
  br label %_ZN11MemBaseline46virtual_memory_sites_to_reservation_site_orderEv.exit

_ZN11MemBaseline46virtual_memory_sites_to_reservation_site_orderEv.exit: ; preds = %20, %_ZN16SortedLinkedListI27VirtualMemoryAllocationSiteXadL_Z27compare_virtual_memory_siteRKS0_S2_EELN6AnyObj15allocation_typeE2EL8MEMFLAGS12ELN17AllocFailStrategy13AllocFailEnumE1EED2Ev.exit.i
  call void @llvm.lifetime.end.p0(i64 24, ptr nonnull %3)
  br label %37

35:                                               ; preds = %2
  %36 = load ptr, ptr @g_assert_poison, align 8
  store i8 88, ptr %36, align 1
  tail call void @_Z28report_should_not_reach_herePKci(ptr noundef nonnull @.str, i32 noundef 256) #15
  unreachable

37:                                               ; preds = %_ZN11MemBaseline46virtual_memory_sites_to_reservation_site_orderEv.exit, %_ZN11MemBaseline34virtual_memory_sites_to_size_orderEv.exit
  %38 = getelementptr inbounds i8, ptr %0, i64 2648
  %39 = load ptr, ptr %38, align 8
  ret ptr %39
}